; Function Attrs: mustprogress uwtable
define hidden noundef ptr @_Z34pj_projection_specific_setup_baconP8PJconsts(ptr noundef %0) local_unnamed_addr #0 {
  %2 = tail call noalias dereferenceable_or_null(8) ptr @calloc(i64 noundef 1, i64 noundef 8) #6
  %3 = icmp eq ptr %2, null
  br i1 %3, label %4, label %6

4:                                                ; preds = %1
  %5 = tail call noundef ptr @_Z21pj_default_destructorP8PJconstsi(ptr noundef %0, i32 noundef 4096)
  br label %10

6:                                                ; preds = %1
  %7 = getelementptr inbounds nuw i8, ptr %0, i64 88
  store ptr %2, ptr %7, align 8, !tbaa !3
  store i32 1, ptr %2, align 4, !tbaa !36
  %8 = getelementptr inbounds nuw i8, ptr %0, i64 216
  store double 0.000000e+00, ptr %8, align 8, !tbaa !38
  %9 = getelementptr inbounds nuw i8, ptr %0, i64 104
  store ptr @_ZL15bacon_s_forward5PJ_LPP8PJconsts, ptr %9, align 8, !tbaa !39
  br label %10

10:                                               ; preds = %6, %4
  %.0 = phi ptr [ %5, %4 ], [ %0, %6 ]
  ret ptr %.0
}